target datalayout = "e-m:e-p270:32:32-p271:32:32-p272:64:64-i64:64-i128:128-f80:128-n8:16:32:64-S128"
target triple = "x86_64-pc-linux-gnu"

%struct._value_string_ext = type { ptr, i32, i32, ptr, ptr }
%struct.expert_field = type { i32, i32 }
%struct.ansi_a_shared_data_t = type { ptr, ptr, ptr, i8, i8, %struct._address, i32, %struct.e_in6_addr, i16, i8 }
%struct._address = type { i32, i32, ptr, ptr }
%struct.e_in6_addr = type { [16 x i8] }

@.str.275 = private unnamed_addr constant [9 x i8] c"Reserved\00", align 1
@ei_ansi_a_extraneous_data = internal global %struct.expert_field zeroinitializer, align 4
@hf_ansi_a_so = internal global i32 0, align 4
@hf_ansi_a_reserved_bits_8_c0 = internal global i32 0, align 4
@hf_ansi_a_so_proprietary_ind = internal global i32 0, align 4
@hf_ansi_a_so_revision = internal global i32 0, align 4
@hf_ansi_a_so_base_so_num = internal global i32 0, align 4
@hf_ansi_a_so_list_num = internal global i32 0, align 4
@hf_ansi_a_so_list_sr_id = internal global i32 0, align 4
@hf_ansi_a_so_list_soci = internal global i32 0, align 4
@ei_ansi_a_short_data = internal global %struct.expert_field zeroinitializer, align 4
@ett_so_list = internal global i32 0, align 4
@.str.1018 = private unnamed_addr constant [3 x i8] c"%s\00", align 1
@.str.1026 = private unnamed_addr constant [11 x i8] c" - (%u) %s\00", align 1
@ansi_a_so_str_vals_ext = internal global %struct._value_string_ext { ptr @_try_val_to_str_ext_init, i32 0, i32 186, ptr @ansi_a_so_str_vals, ptr @.str.1221 }, align 8
@.str.1220 = private unnamed_addr constant [38 x i8] c"Reserved for standard service options\00", align 1
@.str.1389 = private unnamed_addr constant [22 x i8] c" - %u service options\00", align 1
@.str.1390 = private unnamed_addr constant [20 x i8] c"Service Option [%u]\00", align 1

; Function Attrs: null_pointer_is_valid sspstrong uwtable
define internal ptr @ansi_a_so_int_to_str(i32 noundef %0) #1 {
  %2 = alloca i32, align 4
  %3 = alloca ptr, align 8
  store i32 %0, ptr %2, align 4
  call void @llvm.lifetime.start.p0(i64 8, ptr %3) #8
  %4 = load i32, ptr %2, align 4
  %5 = call ptr @try_val_to_str_ext(i32 noundef %4, ptr noundef @ansi_a_so_str_vals_ext)
  store ptr %5, ptr %3, align 8
  %6 = load ptr, ptr %3, align 8
  %7 = icmp eq ptr %6, null
  br i1 %7, label %8, label %17

8:                                                ; preds = %1
  %9 = load i32, ptr %2, align 4
  %10 = icmp sge i32 %9, 4105
  br i1 %10, label %11, label %15

11:                                               ; preds = %8
  %12 = load i32, ptr %2, align 4
  %13 = icmp sle i32 %12, 32767
  br i1 %13, label %14, label %15

14:                                               ; preds = %11
  store ptr @.str.1220, ptr %3, align 8
  br label %16

15:                                               ; preds = %11, %8
  store ptr @.str.275, ptr %3, align 8
  br label %16

16:                                               ; preds = %15, %14
  br label %17

17:                                               ; preds = %16, %1
  %18 = load ptr, ptr %3, align 8
  call void @llvm.lifetime.end.p0(i64 8, ptr %3) #8
  ret ptr %18
}

; Function Attrs: null_pointer_is_valid sspstrong uwtable
define internal zeroext i8 @elem_so_aux(ptr noundef %0, ptr noundef %1, ptr noundef %2, i32 noundef %3, i32 noundef %4, ptr noundef %5) #1 {
  %7 = alloca ptr, align 8
  %8 = alloca ptr, align 8
  %9 = alloca ptr, align 8
  %10 = alloca i32, align 4
  %11 = alloca i32, align 4
  %12 = alloca ptr, align 8
  store ptr %0, ptr %7, align 8
  store ptr %1, ptr %8, align 8
  store ptr %2, ptr %9, align 8
  store i32 %3, ptr %10, align 4
  store i32 %4, ptr %11, align 4
  store ptr %5, ptr %12, align 8
  %13 = load ptr, ptr %9, align 8
  %14 = load i32, ptr @hf_ansi_a_so_proprietary_ind, align 4
  %15 = load ptr, ptr %7, align 8
  %16 = load i32, ptr %10, align 4
  %17 = call ptr @proto_tree_add_item(ptr noundef %13, i32 noundef %14, ptr noundef %15, i32 noundef %16, i32 noundef 2, i32 noundef 0)
  %18 = load ptr, ptr %9, align 8
  %19 = load i32, ptr @hf_ansi_a_so_revision, align 4
  %20 = load ptr, ptr %7, align 8
  %21 = load i32, ptr %10, align 4
  %22 = call ptr @proto_tree_add_item(ptr noundef %18, i32 noundef %19, ptr noundef %20, i32 noundef %21, i32 noundef 2, i32 noundef 0)
  %23 = load ptr, ptr %9, align 8
  %24 = load i32, ptr @hf_ansi_a_so_base_so_num, align 4
  %25 = load ptr, ptr %7, align 8
  %26 = load i32, ptr %10, align 4
  %27 = call ptr @proto_tree_add_item(ptr noundef %23, i32 noundef %24, ptr noundef %25, i32 noundef %26, i32 noundef 2, i32 noundef 0)
  %28 = load ptr, ptr %7, align 8
  %29 = load i32, ptr %10, align 4
  %30 = call zeroext i16 @tvb_get_ntohs(ptr noundef %28, i32 noundef %29)
  %31 = load ptr, ptr %12, align 8
  store i16 %30, ptr %31, align 2
  %32 = load ptr, ptr %9, align 8
  %33 = load i32, ptr @hf_ansi_a_so, align 4
  %34 = load ptr, ptr %7, align 8
  %35 = load i32, ptr %10, align 4
  %36 = load ptr, ptr %12, align 8
  %37 = load i16, ptr %36, align 2
  %38 = zext i16 %37 to i32
  %39 = load ptr, ptr %12, align 8
  %40 = load i16, ptr %39, align 2
  %41 = zext i16 %40 to i32
  %42 = call ptr @ansi_a_so_int_to_str(i32 noundef %41)
  %43 = call ptr (ptr, i32, ptr, i32, i32, i32, ptr, ...) @proto_tree_add_uint_format(ptr noundef %32, i32 noundef %33, ptr noundef %34, i32 noundef %35, i32 noundef 2, i32 noundef %38, ptr noundef @.str.1018, ptr noundef %42)
  ret i8 2
}

; Function Attrs: null_pointer_is_valid sspstrong uwtable
define internal zeroext i8 @elem_so_list(ptr noundef %0, ptr noundef %1, ptr noundef %2, i32 noundef %3, i32 noundef %4, ptr noundef %5) #1 {
  %7 = alloca i8, align 1
  %8 = alloca ptr, align 8
  %9 = alloca ptr, align 8
  %10 = alloca ptr, align 8
  %11 = alloca i32, align 4
  %12 = alloca i32, align 4
  %13 = alloca ptr, align 8
  %14 = alloca i8, align 1
  %15 = alloca i8, align 1
  %16 = alloca i32, align 4
  %17 = alloca ptr, align 8
  %18 = alloca ptr, align 8
  %19 = alloca i32, align 4
  %20 = alloca i16, align 2
  store ptr %0, ptr %8, align 8
  store ptr %1, ptr %9, align 8
  store ptr %2, ptr %10, align 8
  store i32 %3, ptr %11, align 4
  store i32 %4, ptr %12, align 4
  store ptr %5, ptr %13, align 8
  call void @llvm.lifetime.start.p0(i64 1, ptr %14) #8
  call void @llvm.lifetime.start.p0(i64 1, ptr %15) #8
  call void @llvm.lifetime.start.p0(i64 4, ptr %16) #8
  call void @llvm.lifetime.start.p0(i64 8, ptr %17) #8
  call void @llvm.lifetime.start.p0(i64 8, ptr %18) #8
  %21 = load i32, ptr %11, align 4
  store i32 %21, ptr %16, align 4
  %22 = load ptr, ptr %10, align 8
  %23 = load i32, ptr @hf_ansi_a_so_list_num, align 4
  %24 = load ptr, ptr %8, align 8
  %25 = load i32, ptr %16, align 4
  %26 = call ptr @proto_tree_add_item(ptr noundef %22, i32 noundef %23, ptr noundef %24, i32 noundef %25, i32 noundef 1, i32 noundef 0)
  %27 = load ptr, ptr %8, align 8
  %28 = load i32, ptr %16, align 4
  %29 = call zeroext i8 @tvb_get_uint8(ptr noundef %27, i32 noundef %28)
  store i8 %29, ptr %14, align 1
  %30 = load ptr, ptr %13, align 8
  %31 = getelementptr inbounds nuw %struct.ansi_a_shared_data_t, ptr %30, i32 0, i32 2
  %32 = load ptr, ptr %31, align 8
  %33 = load i8, ptr %14, align 1
  %34 = zext i8 %33 to i32
  call void (ptr, ptr, ...) @proto_item_append_text(ptr noundef %32, ptr noundef @.str.1389, i32 noundef %34)
  %35 = load i32, ptr %16, align 4
  %36 = add i32 %35, 1
  store i32 %36, ptr %16, align 4
  %37 = load i32, ptr %12, align 4
  %38 = load i32, ptr %16, align 4
  %39 = load i32, ptr %11, align 4
  %40 = sub i32 %38, %39
  %41 = icmp ule i32 %37, %40
  br i1 %41, label %42, label %45

42:                                               ; preds = %6
  %43 = load i32, ptr %12, align 4
  %44 = trunc i32 %43 to i8
  store i8 %44, ptr %7, align 1
  store i32 1, ptr %19, align 4
  br label %162

45:                                               ; preds = %6
  %46 = load i32, ptr %12, align 4
  %47 = load i32, ptr %16, align 4
  %48 = load i32, ptr %11, align 4
  %49 = sub i32 %47, %48
  %50 = sub i32 %46, %49
  %51 = icmp ult i32 %50, 3
  br i1 %51, label %52, label %74

52:                                               ; preds = %45
  %53 = load ptr, ptr %10, align 8
  %54 = load ptr, ptr %9, align 8
  %55 = load ptr, ptr %8, align 8
  %56 = load i32, ptr %16, align 4
  %57 = load i32, ptr %12, align 4
  %58 = load i32, ptr %16, align 4
  %59 = load i32, ptr %11, align 4
  %60 = sub i32 %58, %59
  %61 = sub i32 %57, %60
  %62 = call ptr @proto_tree_add_expert(ptr noundef %53, ptr noundef %54, ptr noundef @ei_ansi_a_short_data, ptr noundef %55, i32 noundef %56, i32 noundef %61)
  %63 = load i32, ptr %12, align 4
  %64 = load i32, ptr %16, align 4
  %65 = load i32, ptr %11, align 4
  %66 = sub i32 %64, %65
  %67 = sub i32 %63, %66
  %68 = load i32, ptr %16, align 4
  %69 = add i32 %68, %67
  store i32 %69, ptr %16, align 4
  %70 = load i32, ptr %16, align 4
  %71 = load i32, ptr %11, align 4
  %72 = sub i32 %70, %71
  %73 = trunc i32 %72 to i8
  store i8 %73, ptr %7, align 1
  store i32 1, ptr %19, align 4
  br label %162

74:                                               ; preds = %45
  store i8 0, ptr %15, align 1
  br label %75

75:                                               ; preds = %131, %74
  call void @llvm.lifetime.start.p0(i64 2, ptr %20) #8
  %76 = load ptr, ptr %10, align 8
  %77 = load ptr, ptr %8, align 8
  %78 = load i32, ptr %16, align 4
  %79 = load i32, ptr @ett_so_list, align 4
  %80 = load i8, ptr %15, align 1
  %81 = zext i8 %80 to i32
  %82 = add i32 %81, 1
  %83 = call ptr (ptr, ptr, i32, i32, i32, ptr, ptr, ...) @proto_tree_add_subtree_format(ptr noundef %76, ptr noundef %77, i32 noundef %78, i32 noundef 3, i32 noundef %79, ptr noundef %17, ptr noundef @.str.1390, i32 noundef %82)
  store ptr %83, ptr %18, align 8
  %84 = load ptr, ptr %10, align 8
  %85 = load i32, ptr @hf_ansi_a_reserved_bits_8_c0, align 4
  %86 = load ptr, ptr %8, align 8
  %87 = load i32, ptr %16, align 4
  %88 = call ptr @proto_tree_add_item(ptr noundef %84, i32 noundef %85, ptr noundef %86, i32 noundef %87, i32 noundef 1, i32 noundef 0)
  %89 = load ptr, ptr %10, align 8
  %90 = load i32, ptr @hf_ansi_a_so_list_sr_id, align 4
  %91 = load ptr, ptr %8, align 8
  %92 = load i32, ptr %16, align 4
  %93 = call ptr @proto_tree_add_item(ptr noundef %89, i32 noundef %90, ptr noundef %91, i32 noundef %92, i32 noundef 1, i32 noundef 0)
  %94 = load ptr, ptr %10, align 8
  %95 = load i32, ptr @hf_ansi_a_so_list_soci, align 4
  %96 = load ptr, ptr %8, align 8
  %97 = load i32, ptr %16, align 4
  %98 = call ptr @proto_tree_add_item(ptr noundef %94, i32 noundef %95, ptr noundef %96, i32 noundef %97, i32 noundef 1, i32 noundef 0)
  %99 = load i32, ptr %16, align 4
  %100 = add i32 %99, 1
  store i32 %100, ptr %16, align 4
  %101 = load ptr, ptr %8, align 8
  %102 = load ptr, ptr %9, align 8
  %103 = load ptr, ptr %18, align 8
  %104 = load i32, ptr %16, align 4
  %105 = load i32, ptr %12, align 4
  %106 = call zeroext i8 @elem_so_aux(ptr noundef %101, ptr noundef %102, ptr noundef %103, i32 noundef %104, i32 noundef %105, ptr noundef %20)
  %107 = zext i8 %106 to i32
  %108 = load i32, ptr %16, align 4
  %109 = add i32 %108, %107
  store i32 %109, ptr %16, align 4
  %110 = load ptr, ptr %17, align 8
  %111 = load i16, ptr %20, align 2
  %112 = zext i16 %111 to i32
  %113 = load i16, ptr %20, align 2
  %114 = zext i16 %113 to i32
  %115 = call ptr @ansi_a_so_int_to_str(i32 noundef %114)
  call void (ptr, ptr, ...) @proto_item_append_text(ptr noundef %110, ptr noundef @.str.1026, i32 noundef %112, ptr noundef %115)
  %116 = load i8, ptr %15, align 1
  %117 = add i8 %116, 1
  store i8 %117, ptr %15, align 1
  call void @llvm.lifetime.end.p0(i64 2, ptr %20) #8
  br label %118

118:                                              ; preds = %75
  %119 = load i32, ptr %12, align 4
  %120 = load i32, ptr %16, align 4
  %121 = load i32, ptr %11, align 4
  %122 = sub i32 %120, %121
  %123 = sub i32 %119, %122
  %124 = icmp uge i32 %123, 3
  br i1 %124, label %125, label %131

125:                                              ; preds = %118
  %126 = load i8, ptr %15, align 1
  %127 = zext i8 %126 to i32
  %128 = load i8, ptr %14, align 1
  %129 = zext i8 %128 to i32
  %130 = icmp slt i32 %127, %129
  br label %131

131:                                              ; preds = %125, %118
  %132 = phi i1 [ false, %118 ], [ %130, %125 ]
  br i1 %132, label %75, label %133, !llvm.loop !32

133:                                              ; preds = %131
  %134 = load i32, ptr %12, align 4
  %135 = load i32, ptr %16, align 4
  %136 = load i32, ptr %11, align 4
  %137 = sub i32 %135, %136
  %138 = icmp ugt i32 %134, %137
  br i1 %138, label %139, label %157

139:                                              ; preds = %133
  %140 = load ptr, ptr %10, align 8
  %141 = load ptr, ptr %9, align 8
  %142 = load ptr, ptr %8, align 8
  %143 = load i32, ptr %16, align 4
  %144 = load i32, ptr %12, align 4
  %145 = load i32, ptr %16, align 4
  %146 = load i32, ptr %11, align 4
  %147 = sub i32 %145, %146
  %148 = sub i32 %144, %147
  %149 = call ptr @proto_tree_add_expert(ptr noundef %140, ptr noundef %141, ptr noundef @ei_ansi_a_extraneous_data, ptr noundef %142, i32 noundef %143, i32 noundef %148)
  %150 = load i32, ptr %12, align 4
  %151 = load i32, ptr %16, align 4
  %152 = load i32, ptr %11, align 4
  %153 = sub i32 %151, %152
  %154 = sub i32 %150, %153
  %155 = load i32, ptr %16, align 4
  %156 = add i32 %155, %154
  store i32 %156, ptr %16, align 4
  br label %157

157:                                              ; preds = %139, %133
  %158 = load i32, ptr %16, align 4
  %159 = load i32, ptr %11, align 4
  %160 = sub i32 %158, %159
  %161 = trunc i32 %160 to i8
  store i8 %161, ptr %7, align 1
  store i32 1, ptr %19, align 4
  br label %162

162:                                              ; preds = %157, %52, %42
  call void @llvm.lifetime.end.p0(i64 8, ptr %18) #8
  call void @llvm.lifetime.end.p0(i64 8, ptr %17) #8
  call void @llvm.lifetime.end.p0(i64 4, ptr %16) #8
  call void @llvm.lifetime.end.p0(i64 1, ptr %15) #8
  call void @llvm.lifetime.end.p0(i64 1, ptr %14) #8
  %163 = load i8, ptr %7, align 1
  ret i8 %163
}