; Function Attrs: null_pointer_is_valid sspstrong uwtable
define internal zeroext i8 @elem_so_list(ptr noundef %0, ptr noundef %1, ptr noundef %2, i32 noundef %3, i32 noundef %4, ptr noundef readonly captures(none) %5) #1 {
  %7 = alloca ptr, align 8
  call void @llvm.lifetime.start.p0(i64 8, ptr nonnull %7) #7
  %8 = load i32, ptr @hf_ansi_a_so_list_num, align 4
  %9 = tail call ptr @proto_tree_add_item(ptr noundef %2, i32 noundef %8, ptr noundef %0, i32 noundef %3, i32 noundef 1, i32 noundef 0)
  %10 = tail call zeroext i8 @tvb_get_uint8(ptr noundef %0, i32 noundef %3)
  %11 = getelementptr inbounds nuw i8, ptr %5, i64 16
  %12 = load ptr, ptr %11, align 8
  %13 = zext i8 %10 to i32
  tail call void (ptr, ptr, ...) @proto_item_append_text(ptr noundef %12, ptr noundef nonnull @.str.1389, i32 noundef %13)
  %14 = add i32 %3, 1
  %15 = icmp ult i32 %4, 2
  br i1 %15, label %57, label %16

16:                                               ; preds = %6
  %17 = icmp ult i32 %4, 4
  br i1 %17, label %18, label %.preheader

18:                                               ; preds = %16
  %19 = add nsw i32 %4, -1
  %20 = tail call ptr @proto_tree_add_expert(ptr noundef %2, ptr noundef %1, ptr noundef nonnull @ei_ansi_a_short_data, ptr noundef %0, i32 noundef %14, i32 noundef %19)
  br label %57

.preheader:                                       ; preds = %16, %.preheader
  %indvars.iv = phi i32 [ %22, %.preheader ], [ 0, %16 ]
  %.071 = phi i32 [ %43, %.preheader ], [ %14, %16 ]
  %21 = load i32, ptr @ett_so_list, align 4
  %22 = add nuw nsw i32 %indvars.iv, 1
  %23 = call ptr (ptr, ptr, i32, i32, i32, ptr, ptr, ...) @proto_tree_add_subtree_format(ptr noundef %2, ptr noundef %0, i32 noundef %.071, i32 noundef 3, i32 noundef %21, ptr noundef nonnull %7, ptr noundef nonnull @.str.1390, i32 noundef %22)
  %24 = load i32, ptr @hf_ansi_a_reserved_bits_8_c0, align 4
  %25 = call ptr @proto_tree_add_item(ptr noundef %2, i32 noundef %24, ptr noundef %0, i32 noundef %.071, i32 noundef 1, i32 noundef 0)
  %26 = load i32, ptr @hf_ansi_a_so_list_sr_id, align 4
  %27 = call ptr @proto_tree_add_item(ptr noundef %2, i32 noundef %26, ptr noundef %0, i32 noundef %.071, i32 noundef 1, i32 noundef 0)
  %28 = load i32, ptr @hf_ansi_a_so_list_soci, align 4
  %29 = call ptr @proto_tree_add_item(ptr noundef %2, i32 noundef %28, ptr noundef %0, i32 noundef %.071, i32 noundef 1, i32 noundef 0)
  %30 = add i32 %.071, 1
  %31 = load i32, ptr @hf_ansi_a_so_proprietary_ind, align 4
  %32 = call ptr @proto_tree_add_item(ptr noundef %23, i32 noundef %31, ptr noundef %0, i32 noundef %30, i32 noundef 2, i32 noundef 0)
  %33 = load i32, ptr @hf_ansi_a_so_revision, align 4
  %34 = call ptr @proto_tree_add_item(ptr noundef %23, i32 noundef %33, ptr noundef %0, i32 noundef %30, i32 noundef 2, i32 noundef 0)
  %35 = load i32, ptr @hf_ansi_a_so_base_so_num, align 4
  %36 = call ptr @proto_tree_add_item(ptr noundef %23, i32 noundef %35, ptr noundef %0, i32 noundef %30, i32 noundef 2, i32 noundef 0)
  %37 = call zeroext i16 @tvb_get_ntohs(ptr noundef %0, i32 noundef %30)
  %38 = load i32, ptr @hf_ansi_a_so, align 4
  %39 = zext i16 %37 to i32
  %40 = call ptr @try_val_to_str_ext(i32 noundef range(i32 0, 65536) %39, ptr noundef nonnull @ansi_a_so_str_vals_ext)
  %41 = icmp eq ptr %40, null
  %or.cond.i.i = icmp sgt i16 %37, 4104
  %.str.1220..str.275.i.i = select i1 %or.cond.i.i, ptr @.str.1220, ptr @.str.275
  %.0.i.i = select i1 %41, ptr %.str.1220..str.275.i.i, ptr %40
  %42 = call ptr (ptr, i32, ptr, i32, i32, i32, ptr, ...) @proto_tree_add_uint_format(ptr noundef %23, i32 noundef %38, ptr noundef %0, i32 noundef %30, i32 noundef 2, i32 noundef %39, ptr noundef nonnull @.str.1018, ptr noundef nonnull %.0.i.i)
  %43 = add i32 %.071, 3
  %44 = load ptr, ptr %7, align 8
  %45 = call ptr @try_val_to_str_ext(i32 noundef range(i32 0, 65536) %39, ptr noundef nonnull @ansi_a_so_str_vals_ext)
  %46 = icmp eq ptr %45, null
  %.0.i = select i1 %46, ptr %.str.1220..str.275.i.i, ptr %45
  call void (ptr, ptr, ...) @proto_item_append_text(ptr noundef %44, ptr noundef nonnull @.str.1026, i32 noundef %39, ptr noundef nonnull %.0.i)
  %47 = sub i32 %43, %3
  %48 = sub i32 %4, %47
  %49 = icmp ugt i32 %48, 2
  %50 = icmp samesign ult i32 %22, %13
  %51 = and i1 %50, %49
  br i1 %51, label %.preheader, label %52, !llvm.loop !33

52:                                               ; preds = %.preheader
  %53 = icmp ugt i32 %4, %47
  br i1 %53, label %54, label %57

54:                                               ; preds = %52
  %55 = call ptr @proto_tree_add_expert(ptr noundef %2, ptr noundef %1, ptr noundef nonnull @ei_ansi_a_extraneous_data, ptr noundef %0, i32 noundef %43, i32 noundef %48)
  %56 = add i32 %48, %43
  %.pre = sub i32 %56, %3
  br label %57

57:                                               ; preds = %52, %54, %6, %18
  %.0.in = phi i32 [ %4, %18 ], [ %4, %6 ], [ %.pre, %54 ], [ %47, %52 ]
  %.0 = trunc i32 %.0.in to i8
  call void @llvm.lifetime.end.p0(i64 8, ptr nonnull %7) #7
  ret i8 %.0
}